target datalayout = "e-m:e-p270:32:32-p271:32:32-p272:64:64-i64:64-i128:128-f80:128-n8:16:32:64-S128"
target triple = "x86_64-pc-linux-gnu"

%"struct.clang::ASTConstraintSatisfaction" = type <{ i64, i8, [7 x i8] }>
%"class.llvm::PointerUnion" = type { %"class.llvm::pointer_union_detail::PointerUnionMembers" }
%"class.llvm::pointer_union_detail::PointerUnionMembers" = type { %"class.llvm::pointer_union_detail::PointerUnionMembers.348" }
%"class.llvm::pointer_union_detail::PointerUnionMembers.348" = type { %"class.llvm::pointer_union_detail::PointerUnionMembers.349" }
%"class.llvm::pointer_union_detail::PointerUnionMembers.349" = type { %"class.llvm::PointerIntPair.350" }
%"class.llvm::PointerIntPair.350" = type { %"struct.llvm::detail::PunnedPointer.351" }
%"struct.llvm::detail::PunnedPointer.351" = type { [8 x i8] }

; Function Attrs: mustprogress nounwind uwtable
define linkonce_odr hidden noundef ptr @_ZN4llvm15TrailingObjectsIN5clang25ASTConstraintSatisfactionEJNS_12PointerUnionIJPNS1_4ExprEPSt4pairINS1_14SourceLocationENS_9StringRefEEEEEEE22getTrailingObjectsImplEPKS2_NS_25trailing_objects_internal19TrailingObjectsBase13OverloadTokenIS2_EE(ptr noundef %0) #0 comdat align 2 {
  %2 = alloca ptr, align 8
  store ptr %0, ptr %2, align 8
  %3 = load ptr, ptr %2, align 8
  ret ptr %3
}

; Function Attrs: mustprogress nounwind uwtable
define linkonce_odr hidden noundef i64 @_ZN4llvm15TrailingObjectsIN5clang25ASTConstraintSatisfactionEJNS_12PointerUnionIJPNS1_4ExprEPSt4pairINS1_14SourceLocationENS_9StringRefEEEEEEE22callNumTrailingObjectsEPKS2_NS_25trailing_objects_internal19TrailingObjectsBase13OverloadTokenIS2_EE(ptr noundef %0) #0 comdat align 2 {
  %2 = alloca ptr, align 8
  store ptr %0, ptr %2, align 8
  ret i64 1
}

; Function Attrs: mustprogress nounwind uwtable
define linkonce_odr hidden noundef ptr @_ZN4llvm15TrailingObjectsIN5clang25ASTConstraintSatisfactionEJNS_12PointerUnionIJPNS1_4ExprEPSt4pairINS1_14SourceLocationENS_9StringRefEEEEEEE22getTrailingObjectsImplEPS2_NS_25trailing_objects_internal19TrailingObjectsBase13OverloadTokenIS2_EE(ptr noundef %0) #0 comdat align 2 {
  %2 = alloca ptr, align 8
  store ptr %0, ptr %2, align 8
  %3 = load ptr, ptr %2, align 8
  ret ptr %3
}

; Function Attrs: mustprogress nounwind uwtable
define linkonce_odr hidden noundef ptr @_ZN4llvm25trailing_objects_internal19TrailingObjectsImplILi8EN5clang25ASTConstraintSatisfactionENS_15TrailingObjectsIS3_JNS_12PointerUnionIJPNS2_4ExprEPSt4pairINS2_14SourceLocationENS_9StringRefEEEEEEEES3_JSD_EE22getTrailingObjectsImplEPKS3_NS0_19TrailingObjectsBase13OverloadTokenISD_EE(ptr noundef %0) #0 comdat align 2 {
  %2 = alloca ptr, align 8
  %3 = alloca ptr, align 8
  store ptr %0, ptr %2, align 8
  %4 = load ptr, ptr %2, align 8
  %5 = call noundef ptr @_ZN4llvm15TrailingObjectsIN5clang25ASTConstraintSatisfactionEJNS_12PointerUnionIJPNS1_4ExprEPSt4pairINS1_14SourceLocationENS_9StringRefEEEEEEE22getTrailingObjectsImplEPKS2_NS_25trailing_objects_internal19TrailingObjectsBase13OverloadTokenIS2_EE(ptr noundef %4)
  %6 = load ptr, ptr %2, align 8
  %7 = call noundef i64 @_ZN4llvm15TrailingObjectsIN5clang25ASTConstraintSatisfactionEJNS_12PointerUnionIJPNS1_4ExprEPSt4pairINS1_14SourceLocationENS_9StringRefEEEEEEE22callNumTrailingObjectsEPKS2_NS_25trailing_objects_internal19TrailingObjectsBase13OverloadTokenIS2_EE(ptr noundef %6)
  %8 = getelementptr inbounds %"struct.clang::ASTConstraintSatisfaction", ptr %5, i64 %7
  store ptr %8, ptr %3, align 8
  %9 = load ptr, ptr %3, align 8
  ret ptr %9
}

; Function Attrs: mustprogress nounwind uwtable
define linkonce_odr hidden noundef ptr @_ZN4llvm25trailing_objects_internal19TrailingObjectsImplILi8EN5clang25ASTConstraintSatisfactionENS_15TrailingObjectsIS3_JNS_12PointerUnionIJPNS2_4ExprEPSt4pairINS2_14SourceLocationENS_9StringRefEEEEEEEES3_JSD_EE22getTrailingObjectsImplEPS3_NS0_19TrailingObjectsBase13OverloadTokenISD_EE(ptr noundef %0) #0 comdat align 2 {
  %2 = alloca ptr, align 8
  %3 = alloca ptr, align 8
  store ptr %0, ptr %2, align 8
  %4 = load ptr, ptr %2, align 8
  %5 = call noundef ptr @_ZN4llvm15TrailingObjectsIN5clang25ASTConstraintSatisfactionEJNS_12PointerUnionIJPNS1_4ExprEPSt4pairINS1_14SourceLocationENS_9StringRefEEEEEEE22getTrailingObjectsImplEPS2_NS_25trailing_objects_internal19TrailingObjectsBase13OverloadTokenIS2_EE(ptr noundef %4)
  %6 = load ptr, ptr %2, align 8
  %7 = call noundef i64 @_ZN4llvm15TrailingObjectsIN5clang25ASTConstraintSatisfactionEJNS_12PointerUnionIJPNS1_4ExprEPSt4pairINS1_14SourceLocationENS_9StringRefEEEEEEE22callNumTrailingObjectsEPKS2_NS_25trailing_objects_internal19TrailingObjectsBase13OverloadTokenIS2_EE(ptr noundef %6)
  %8 = getelementptr inbounds %"struct.clang::ASTConstraintSatisfaction", ptr %5, i64 %7
  store ptr %8, ptr %3, align 8
  %9 = load ptr, ptr %3, align 8
  ret ptr %9
}

; Function Attrs: mustprogress nounwind uwtable
define linkonce_odr hidden void @_ZN4llvm15TrailingObjectsIN5clang25ASTConstraintSatisfactionEJNS_12PointerUnionIJPNS1_4ExprEPSt4pairINS1_14SourceLocationENS_9StringRefEEEEEEE31verifyTrailingObjectsAssertionsEv() #0 comdat align 2 {
  ret void
}

; Function Attrs: mustprogress nounwind uwtable
define linkonce_odr hidden noundef ptr @_ZNK4llvm15TrailingObjectsIN5clang25ASTConstraintSatisfactionEJNS_12PointerUnionIJPNS1_4ExprEPSt4pairINS1_14SourceLocationENS_9StringRefEEEEEEE18getTrailingObjectsISB_EEPKT_v(ptr noundef nonnull align 8 dereferenceable(8) %0) #0 comdat align 2 {
  %2 = alloca ptr, align 8
  store ptr %0, ptr %2, align 8
  %3 = load ptr, ptr %2, align 8
  call void @_ZN4llvm15TrailingObjectsIN5clang25ASTConstraintSatisfactionEJNS_12PointerUnionIJPNS1_4ExprEPSt4pairINS1_14SourceLocationENS_9StringRefEEEEEEE31verifyTrailingObjectsAssertionsEv()
  %4 = call noundef ptr @_ZN4llvm25trailing_objects_internal19TrailingObjectsImplILi8EN5clang25ASTConstraintSatisfactionENS_15TrailingObjectsIS3_JNS_12PointerUnionIJPNS2_4ExprEPSt4pairINS2_14SourceLocationENS_9StringRefEEEEEEEES3_JSD_EE22getTrailingObjectsImplEPKS3_NS0_19TrailingObjectsBase13OverloadTokenISD_EE(ptr noundef %3)
  ret ptr %4
}

; Function Attrs: mustprogress nounwind uwtable
define linkonce_odr hidden noundef ptr @_ZN4llvm15TrailingObjectsIN5clang25ASTConstraintSatisfactionEJNS_12PointerUnionIJPNS1_4ExprEPSt4pairINS1_14SourceLocationENS_9StringRefEEEEEEE18getTrailingObjectsISB_EEPT_v(ptr noundef nonnull align 8 dereferenceable(8) %0) #0 comdat align 2 {
  %2 = alloca ptr, align 8
  store ptr %0, ptr %2, align 8
  %3 = load ptr, ptr %2, align 8
  call void @_ZN4llvm15TrailingObjectsIN5clang25ASTConstraintSatisfactionEJNS_12PointerUnionIJPNS1_4ExprEPSt4pairINS1_14SourceLocationENS_9StringRefEEEEEEE31verifyTrailingObjectsAssertionsEv()
  %4 = call noundef ptr @_ZN4llvm25trailing_objects_internal19TrailingObjectsImplILi8EN5clang25ASTConstraintSatisfactionENS_15TrailingObjectsIS3_JNS_12PointerUnionIJPNS2_4ExprEPSt4pairINS2_14SourceLocationENS_9StringRefEEEEEEEES3_JSD_EE22getTrailingObjectsImplEPS3_NS0_19TrailingObjectsBase13OverloadTokenISD_EE(ptr noundef %3)
  ret ptr %4
}

; Function Attrs: mustprogress nounwind uwtable
define linkonce_odr hidden noundef ptr @_ZNK5clang25ASTConstraintSatisfaction5beginEv(ptr noundef nonnull align 8 dereferenceable(16) %0) #0 comdat align 2 {
  %2 = alloca ptr, align 8
  store ptr %0, ptr %2, align 8
  %3 = load ptr, ptr %2, align 8
  %4 = call noundef ptr @_ZNK4llvm15TrailingObjectsIN5clang25ASTConstraintSatisfactionEJNS_12PointerUnionIJPNS1_4ExprEPSt4pairINS1_14SourceLocationENS_9StringRefEEEEEEE18getTrailingObjectsISB_EEPKT_v(ptr noundef nonnull align 8 dereferenceable(8) %3)
  ret ptr %4
}

; Function Attrs: mustprogress nounwind uwtable
define dso_local void @_ZN5clang25ASTConstraintSatisfactionC2ERKNS_10ASTContextERKS0_(ptr noundef nonnull align 8 dereferenceable(16) %0, ptr noundef nonnull align 8 dereferenceable(23096) %1, ptr noundef nonnull align 8 dereferenceable(16) %2) unnamed_addr #0 align 2 {
  %4 = alloca ptr, align 8
  %5 = alloca ptr, align 8
  %6 = alloca ptr, align 8
  %7 = alloca i32, align 4
  store ptr %0, ptr %4, align 8
  store ptr %1, ptr %5, align 8
  store ptr %2, ptr %6, align 8
  %8 = load ptr, ptr %4, align 8
  %9 = getelementptr inbounds nuw %"struct.clang::ASTConstraintSatisfaction", ptr %8, i32 0, i32 0
  %10 = load ptr, ptr %6, align 8
  %11 = getelementptr inbounds nuw %"struct.clang::ASTConstraintSatisfaction", ptr %10, i32 0, i32 0
  %12 = load i64, ptr %11, align 8
  store i64 %12, ptr %9, align 8
  %13 = getelementptr inbounds nuw %"struct.clang::ASTConstraintSatisfaction", ptr %8, i32 0, i32 1
  %14 = load ptr, ptr %6, align 8
  %15 = getelementptr inbounds nuw %"struct.clang::ASTConstraintSatisfaction", ptr %14, i32 0, i32 1
  %16 = load i8, ptr %15, align 8
  %17 = and i8 %16, 1
  %18 = trunc i8 %17 to i1
  %19 = zext i1 %18 to i8
  %20 = load i8, ptr %13, align 8
  %21 = and i8 %20, -2
  %22 = or i8 %21, %19
  store i8 %22, ptr %13, align 8
  %23 = getelementptr inbounds nuw %"struct.clang::ASTConstraintSatisfaction", ptr %8, i32 0, i32 1
  %24 = load ptr, ptr %6, align 8
  %25 = getelementptr inbounds nuw %"struct.clang::ASTConstraintSatisfaction", ptr %24, i32 0, i32 1
  %26 = load i8, ptr %25, align 8
  %27 = lshr i8 %26, 1
  %28 = and i8 %27, 1
  %29 = trunc i8 %28 to i1
  %30 = zext i1 %29 to i8
  %31 = load i8, ptr %23, align 8
  %32 = shl i8 %30, 1
  %33 = and i8 %31, -3
  %34 = or i8 %33, %32
  store i8 %34, ptr %23, align 8
  store i32 0, ptr %7, align 4
  br label %35

35:                                               ; preds = %52, %3
  %36 = load i32, ptr %7, align 4
  %37 = zext i32 %36 to i64
  %38 = getelementptr inbounds nuw %"struct.clang::ASTConstraintSatisfaction", ptr %8, i32 0, i32 0
  %39 = load i64, ptr %38, align 8
  %40 = icmp ult i64 %37, %39
  br i1 %40, label %41, label %55

41:                                               ; preds = %35
  %42 = load ptr, ptr %5, align 8
  %43 = load ptr, ptr %6, align 8
  %44 = call noundef ptr @_ZNK5clang25ASTConstraintSatisfaction5beginEv(ptr noundef nonnull align 8 dereferenceable(16) %43)
  %45 = load i32, ptr %7, align 4
  %46 = zext i32 %45 to i64
  %47 = getelementptr inbounds %"class.llvm::PointerUnion", ptr %44, i64 %46
  %48 = call noundef ptr @_ZN4llvm15TrailingObjectsIN5clang25ASTConstraintSatisfactionEJNS_12PointerUnionIJPNS1_4ExprEPSt4pairINS1_14SourceLocationENS_9StringRefEEEEEEE18getTrailingObjectsISB_EEPT_v(ptr noundef nonnull align 8 dereferenceable(8) %8)
  %49 = load i32, ptr %7, align 4
  %50 = zext i32 %49 to i64
  %51 = getelementptr inbounds %"class.llvm::PointerUnion", ptr %48, i64 %50
  call void @_ZL33CreateUnsatisfiedConstraintRecordRKN5clang10ASTContextERKN4llvm12PointerUnionIJPNS_4ExprEPSt4pairINS_14SourceLocationENS3_9StringRefEEEEEPSC_(ptr noundef nonnull align 8 dereferenceable(23096) %42, ptr noundef nonnull align 8 dereferenceable(8) %47, ptr noundef %51)
  br label %52

52:                                               ; preds = %41
  %53 = load i32, ptr %7, align 4
  %54 = add i32 %53, 1
  store i32 %54, ptr %7, align 4
  br label %35, !llvm.loop !6

55:                                               ; preds = %35
  ret void
}