; Function Attrs: mustprogress nounwind uwtable
define dso_local void @_ZN5clang25ASTConstraintSatisfactionC2ERKNS_10ASTContextERKS0_(ptr nocapture noundef nonnull align 8 dereferenceable(16) %0, ptr noundef nonnull align 8 dereferenceable(23096) %1, ptr nocapture noundef nonnull readonly align 8 dereferenceable(16) %2) unnamed_addr #0 align 2 {
  %4 = load i64, ptr %2, align 8
  store i64 %4, ptr %0, align 8
  %5 = getelementptr inbounds nuw i8, ptr %0, i64 8
  %6 = getelementptr inbounds nuw i8, ptr %2, i64 8
  %7 = load i8, ptr %6, align 8
  %8 = and i8 %7, 1
  %9 = load i8, ptr %5, align 8
  %10 = and i8 %9, -2
  %11 = or disjoint i8 %10, %8
  store i8 %11, ptr %5, align 8
  %12 = load i8, ptr %6, align 8
  %.lobit = and i8 %12, 2
  %13 = and i8 %11, -3
  %14 = or disjoint i8 %13, %.lobit
  store i8 %14, ptr %5, align 8
  %.not = icmp eq i64 %4, 0
  br i1 %.not, label %._crit_edge, label %.lr.ph

.lr.ph:                                           ; preds = %3
  %15 = getelementptr inbounds i8, ptr %2, i64 16
  %16 = getelementptr inbounds i8, ptr %0, i64 16
  br label %17

17:                                               ; preds = %.lr.ph, %17
  %18 = phi i64 [ 0, %.lr.ph ], [ %22, %17 ]
  %.010 = phi i32 [ 0, %.lr.ph ], [ %21, %17 ]
  %19 = getelementptr inbounds %"class.llvm::PointerUnion", ptr %15, i64 %18
  %20 = getelementptr inbounds %"class.llvm::PointerUnion", ptr %16, i64 %18
  %.val = load i64, ptr %19, align 8
  tail call fastcc void @_ZL33CreateUnsatisfiedConstraintRecordRKN5clang10ASTContextERKN4llvm12PointerUnionIJPNS_4ExprEPSt4pairINS_14SourceLocationENS3_9StringRefEEEEEPSC_(ptr noundef nonnull align 8 dereferenceable(23096) %1, i64 %.val, ptr noundef nonnull %20)
  %21 = add i32 %.010, 1
  %22 = zext i32 %21 to i64
  %23 = load i64, ptr %0, align 8
  %24 = icmp ugt i64 %23, %22
  br i1 %24, label %17, label %._crit_edge, !llvm.loop !6

._crit_edge:                                      ; preds = %17, %3
  ret void
}